target datalayout = "e-m:e-p270:32:32-p271:32:32-p272:64:64-i64:64-i128:128-f80:128-n8:16:32:64-S128"
target triple = "x86_64-pc-linux-gnu"

%"class.std::__cxx11::basic_string" = type { %"struct.std::__cxx11::basic_string<char>::_Alloc_hider", i64, %union.anon.373 }
%"struct.std::__cxx11::basic_string<char>::_Alloc_hider" = type { ptr }
%union.anon.373 = type { i64, [8 x i8] }
%"class.std::allocator.370" = type { i8 }
%"struct.ue2::Report" = type { i32, i8, i64, i64, i64, i32, i32, i8, i32, i32, i32, i64, i64 }
%struct.som_operation = type { i8, i32, %union.anon.1265 }
%union.anon.1265 = type { i64 }

@.str.8 = private unnamed_addr constant [29 x i8] c"Unable to generate bytecode.\00", align 1
@_ZTIN3ue212CompileErrorE = external constant ptr

; Function Attrs: mustprogress nounwind uwtable
define linkonce_odr dso_local void @_ZNSt15__new_allocatorIcE10deallocateEPcm(ptr noundef nonnull align 1 dereferenceable(1) %0, ptr noundef %1, i64 noundef %2) #1 comdat align 2 {
  %4 = alloca ptr, align 8
  %5 = alloca ptr, align 8
  %6 = alloca i64, align 8
  store ptr %0, ptr %4, align 8
  store ptr %1, ptr %5, align 8
  store i64 %2, ptr %6, align 8
  %7 = load ptr, ptr %5, align 8
  call void @_ZdlPv(ptr noundef %7) #26
  ret void
}

; Function Attrs: mustprogress nounwind uwtable
define linkonce_odr dso_local noundef ptr @_ZNSt19__ptr_traits_ptr_toIPKcS0_Lb0EE10pointer_toERS0_(ptr noundef nonnull align 1 dereferenceable(1) %0) #1 comdat align 2 {
  %2 = alloca ptr, align 8
  store ptr %0, ptr %2, align 8
  %3 = load ptr, ptr %2, align 8
  ret ptr %3
}

; Function Attrs: mustprogress uwtable
define linkonce_odr dso_local void @_ZNSt16allocator_traitsISaIcEE10deallocateERS0_Pcm(ptr noundef nonnull align 1 dereferenceable(1) %0, ptr noundef %1, i64 noundef %2) #3 comdat align 2 {
  %4 = alloca ptr, align 8
  %5 = alloca ptr, align 8
  %6 = alloca i64, align 8
  store ptr %0, ptr %4, align 8
  store ptr %1, ptr %5, align 8
  store i64 %2, ptr %6, align 8
  %7 = load ptr, ptr %4, align 8
  %8 = load ptr, ptr %5, align 8
  %9 = load i64, ptr %6, align 8
  call void @_ZNSt15__new_allocatorIcE10deallocateEPcm(ptr noundef nonnull align 1 dereferenceable(1) %7, ptr noundef %8, i64 noundef %9)
  ret void
}

; Function Attrs: mustprogress nounwind uwtable
define available_externally noundef nonnull align 1 dereferenceable(1) ptr @_ZNSt7__cxx1112basic_stringIcSt11char_traitsIcESaIcEE16_M_get_allocatorEv(ptr noundef nonnull align 8 dereferenceable(32) %0) #1 align 2 {
  %2 = alloca ptr, align 8
  store ptr %0, ptr %2, align 8
  %3 = load ptr, ptr %2, align 8
  %4 = getelementptr inbounds nuw %"class.std::__cxx11::basic_string", ptr %3, i32 0, i32 0
  ret ptr %4
}

; Function Attrs: mustprogress nounwind uwtable
define available_externally noundef ptr @_ZNKSt7__cxx1112basic_stringIcSt11char_traitsIcESaIcEE13_M_local_dataEv(ptr noundef nonnull align 8 dereferenceable(32) %0) #1 align 2 {
  %2 = alloca ptr, align 8
  store ptr %0, ptr %2, align 8
  %3 = load ptr, ptr %2, align 8
  %4 = getelementptr inbounds nuw %"class.std::__cxx11::basic_string", ptr %3, i32 0, i32 2
  %5 = getelementptr inbounds [16 x i8], ptr %4, i64 0, i64 0
  %6 = call noundef ptr @_ZNSt19__ptr_traits_ptr_toIPKcS0_Lb0EE10pointer_toERS0_(ptr noundef nonnull align 1 dereferenceable(1) %5) #23
  ret ptr %6
}

; Function Attrs: mustprogress nounwind uwtable
define available_externally noundef ptr @_ZNKSt7__cxx1112basic_stringIcSt11char_traitsIcESaIcEE7_M_dataEv(ptr noundef nonnull align 8 dereferenceable(32) %0) #1 align 2 {
  %2 = alloca ptr, align 8
  store ptr %0, ptr %2, align 8
  %3 = load ptr, ptr %2, align 8
  %4 = getelementptr inbounds nuw %"class.std::__cxx11::basic_string", ptr %3, i32 0, i32 0
  %5 = getelementptr inbounds nuw %"struct.std::__cxx11::basic_string<char>::_Alloc_hider", ptr %4, i32 0, i32 0
  %6 = load ptr, ptr %5, align 8
  ret ptr %6
}

; Function Attrs: mustprogress nounwind uwtable
define available_externally void @_ZNSt7__cxx1112basic_stringIcSt11char_traitsIcESaIcEE10_M_destroyEm(ptr noundef nonnull align 8 dereferenceable(32) %0, i64 noundef %1) #1 align 2 personality ptr @__gxx_personality_v0 {
  %3 = alloca ptr, align 8
  %4 = alloca i64, align 8
  %5 = alloca ptr, align 8
  %6 = alloca i32, align 4
  store ptr %0, ptr %3, align 8
  store i64 %1, ptr %4, align 8
  %7 = load ptr, ptr %3, align 8
  %8 = invoke noundef nonnull align 1 dereferenceable(1) ptr @_ZNSt7__cxx1112basic_stringIcSt11char_traitsIcESaIcEE16_M_get_allocatorEv(ptr noundef nonnull align 8 dereferenceable(32) %7)
          to label %9 unwind label %15

9:                                                ; preds = %2
  %10 = invoke noundef ptr @_ZNKSt7__cxx1112basic_stringIcSt11char_traitsIcESaIcEE7_M_dataEv(ptr noundef nonnull align 8 dereferenceable(32) %7)
          to label %11 unwind label %15

11:                                               ; preds = %9
  %12 = load i64, ptr %4, align 8
  %13 = add i64 %12, 1
  invoke void @_ZNSt16allocator_traitsISaIcEE10deallocateERS0_Pcm(ptr noundef nonnull align 1 dereferenceable(1) %8, ptr noundef %10, i64 noundef %13)
          to label %14 unwind label %15

14:                                               ; preds = %11
  ret void

15:                                               ; preds = %11, %9, %2
  %16 = landingpad { ptr, i32 }
          filter [0 x ptr] zeroinitializer
  %17 = extractvalue { ptr, i32 } %16, 0
  store ptr %17, ptr %5, align 8
  %18 = extractvalue { ptr, i32 } %16, 1
  store i32 %18, ptr %6, align 4
  br label %19

19:                                               ; preds = %15
  %20 = load ptr, ptr %5, align 8
  call void @__cxa_call_unexpected(ptr %20) #27
  unreachable
}

; Function Attrs: mustprogress uwtable
define available_externally noundef zeroext i1 @_ZNKSt7__cxx1112basic_stringIcSt11char_traitsIcESaIcEE11_M_is_localEv(ptr noundef nonnull align 8 dereferenceable(32) %0) #3 align 2 {
  %2 = alloca i1, align 1
  %3 = alloca ptr, align 8
  store ptr %0, ptr %3, align 8
  %4 = load ptr, ptr %3, align 8
  %5 = call noundef ptr @_ZNKSt7__cxx1112basic_stringIcSt11char_traitsIcESaIcEE7_M_dataEv(ptr noundef nonnull align 8 dereferenceable(32) %4)
  %6 = call noundef ptr @_ZNKSt7__cxx1112basic_stringIcSt11char_traitsIcESaIcEE13_M_local_dataEv(ptr noundef nonnull align 8 dereferenceable(32) %4)
  %7 = icmp eq ptr %5, %6
  br i1 %7, label %8, label %14

8:                                                ; preds = %1
  %9 = getelementptr inbounds nuw %"class.std::__cxx11::basic_string", ptr %4, i32 0, i32 1
  %10 = load i64, ptr %9, align 8
  %11 = icmp ugt i64 %10, 15
  br i1 %11, label %12, label %13

12:                                               ; preds = %8
  unreachable

13:                                               ; preds = %8
  store i1 true, ptr %2, align 1
  br label %15

14:                                               ; preds = %1
  store i1 false, ptr %2, align 1
  br label %15

15:                                               ; preds = %14, %13
  %16 = load i1, ptr %2, align 1
  ret i1 %16
}

; Function Attrs: noinline noreturn nounwind uwtable
define linkonce_odr hidden void @__clang_call_terminate(ptr noundef %0) #11 comdat {
  %2 = call ptr @__cxa_begin_catch(ptr %0) #23
  call void @_ZSt9terminatev() #24
  unreachable
}

; Function Attrs: mustprogress uwtable
define available_externally void @_ZNSt7__cxx1112basic_stringIcSt11char_traitsIcESaIcEE10_M_disposeEv(ptr noundef nonnull align 8 dereferenceable(32) %0) #3 align 2 {
  %2 = alloca ptr, align 8
  store ptr %0, ptr %2, align 8
  %3 = load ptr, ptr %2, align 8
  %4 = call noundef zeroext i1 @_ZNKSt7__cxx1112basic_stringIcSt11char_traitsIcESaIcEE11_M_is_localEv(ptr noundef nonnull align 8 dereferenceable(32) %3)
  br i1 %4, label %8, label %5

5:                                                ; preds = %1
  %6 = getelementptr inbounds nuw %"class.std::__cxx11::basic_string", ptr %3, i32 0, i32 2
  %7 = load i64, ptr %6, align 8
  call void @_ZNSt7__cxx1112basic_stringIcSt11char_traitsIcESaIcEE10_M_destroyEm(ptr noundef nonnull align 8 dereferenceable(32) %3, i64 noundef %7) #23
  br label %8

8:                                                ; preds = %5, %1
  ret void
}

; Function Attrs: mustprogress nounwind uwtable
define linkonce_odr dso_local void @_ZNSt15__new_allocatorIcEC2Ev(ptr noundef nonnull align 1 dereferenceable(1) %0) unnamed_addr #1 comdat align 2 {
  %2 = alloca ptr, align 8
  store ptr %0, ptr %2, align 8
  ret void
}

; Function Attrs: mustprogress nounwind uwtable
define linkonce_odr dso_local void @_ZNSt15__new_allocatorIcED2Ev(ptr noundef nonnull align 1 dereferenceable(1) %0) unnamed_addr #1 comdat align 2 {
  %2 = alloca ptr, align 8
  store ptr %0, ptr %2, align 8
  ret void
}

; Function Attrs: mustprogress nounwind uwtable
define available_externally void @_ZNSt7__cxx1112basic_stringIcSt11char_traitsIcESaIcEED2Ev(ptr noundef nonnull align 8 dereferenceable(32) %0) unnamed_addr #1 align 2 personality ptr @__gxx_personality_v0 {
  %2 = alloca ptr, align 8
  store ptr %0, ptr %2, align 8
  %3 = load ptr, ptr %2, align 8
  invoke void @_ZNSt7__cxx1112basic_stringIcSt11char_traitsIcESaIcEE10_M_disposeEv(ptr noundef nonnull align 8 dereferenceable(32) %3)
          to label %4 unwind label %6

4:                                                ; preds = %1
  %5 = getelementptr inbounds nuw %"class.std::__cxx11::basic_string", ptr %3, i32 0, i32 0
  call void @_ZNSt15__new_allocatorIcED2Ev(ptr noundef nonnull align 8 dereferenceable(8) %5) #23
  ret void

6:                                                ; preds = %1
  %7 = landingpad { ptr, i32 }
          catch ptr null
  %8 = extractvalue { ptr, i32 } %7, 0
  call void @__clang_call_terminate(ptr %8) #24
  unreachable
}

; Function Attrs: mustprogress nounwind uwtable
define available_externally void @_ZNSaIcEC2Ev(ptr noundef nonnull align 1 dereferenceable(1) %0) unnamed_addr #1 align 2 {
  %2 = alloca ptr, align 8
  store ptr %0, ptr %2, align 8
  %3 = load ptr, ptr %2, align 8
  call void @_ZNSt15__new_allocatorIcEC2Ev(ptr noundef nonnull align 1 dereferenceable(1) %3) #23
  ret void
}

; Function Attrs: mustprogress uwtable
define internal void @_ZN3ue2L17writeSomOperationERKNS_6ReportEP13som_operation(ptr noundef nonnull align 8 dereferenceable(72) %0, ptr noundef %1) #3 personality ptr @__gxx_personality_v0 {
  %3 = alloca ptr, align 8
  %4 = alloca ptr, align 8
  %5 = alloca %"class.std::__cxx11::basic_string", align 8
  %6 = alloca %"class.std::allocator.370", align 1
  %7 = alloca ptr, align 8
  %8 = alloca i32, align 4
  %9 = alloca i1, align 1
  store ptr %0, ptr %3, align 8
  store ptr %1, ptr %4, align 8
  %10 = load ptr, ptr %4, align 8
  call void @llvm.memset.p0.i64(ptr align 8 %10, i8 0, i64 16, i1 false)
  %11 = load ptr, ptr %3, align 8
  %12 = getelementptr inbounds nuw %"struct.ue2::Report", ptr %11, i32 0, i32 0
  %13 = load i32, ptr %12, align 8
  switch i32 %13, label %59 [
    i32 1, label %14
    i32 2, label %17
    i32 3, label %20
    i32 4, label %23
    i32 5, label %26
    i32 6, label %29
    i32 7, label %32
    i32 8, label %35
    i32 9, label %38
    i32 10, label %41
    i32 11, label %44
    i32 12, label %47
    i32 13, label %50
    i32 14, label %53
    i32 15, label %56
  ]

14:                                               ; preds = %2
  %15 = load ptr, ptr %4, align 8
  %16 = getelementptr inbounds nuw %struct.som_operation, ptr %15, i32 0, i32 0
  store i8 1, ptr %16, align 8
  br label %75

17:                                               ; preds = %2
  %18 = load ptr, ptr %4, align 8
  %19 = getelementptr inbounds nuw %struct.som_operation, ptr %18, i32 0, i32 0
  store i8 2, ptr %19, align 8
  br label %75

20:                                               ; preds = %2
  %21 = load ptr, ptr %4, align 8
  %22 = getelementptr inbounds nuw %struct.som_operation, ptr %21, i32 0, i32 0
  store i8 3, ptr %22, align 8
  br label %75

23:                                               ; preds = %2
  %24 = load ptr, ptr %4, align 8
  %25 = getelementptr inbounds nuw %struct.som_operation, ptr %24, i32 0, i32 0
  store i8 4, ptr %25, align 8
  br label %75

26:                                               ; preds = %2
  %27 = load ptr, ptr %4, align 8
  %28 = getelementptr inbounds nuw %struct.som_operation, ptr %27, i32 0, i32 0
  store i8 5, ptr %28, align 8
  br label %75

29:                                               ; preds = %2
  %30 = load ptr, ptr %4, align 8
  %31 = getelementptr inbounds nuw %struct.som_operation, ptr %30, i32 0, i32 0
  store i8 6, ptr %31, align 8
  br label %75

32:                                               ; preds = %2
  %33 = load ptr, ptr %4, align 8
  %34 = getelementptr inbounds nuw %struct.som_operation, ptr %33, i32 0, i32 0
  store i8 7, ptr %34, align 8
  br label %75

35:                                               ; preds = %2
  %36 = load ptr, ptr %4, align 8
  %37 = getelementptr inbounds nuw %struct.som_operation, ptr %36, i32 0, i32 0
  store i8 8, ptr %37, align 8
  br label %75

38:                                               ; preds = %2
  %39 = load ptr, ptr %4, align 8
  %40 = getelementptr inbounds nuw %struct.som_operation, ptr %39, i32 0, i32 0
  store i8 9, ptr %40, align 8
  br label %75

41:                                               ; preds = %2
  %42 = load ptr, ptr %4, align 8
  %43 = getelementptr inbounds nuw %struct.som_operation, ptr %42, i32 0, i32 0
  store i8 10, ptr %43, align 8
  br label %75

44:                                               ; preds = %2
  %45 = load ptr, ptr %4, align 8
  %46 = getelementptr inbounds nuw %struct.som_operation, ptr %45, i32 0, i32 0
  store i8 11, ptr %46, align 8
  br label %75

47:                                               ; preds = %2
  %48 = load ptr, ptr %4, align 8
  %49 = getelementptr inbounds nuw %struct.som_operation, ptr %48, i32 0, i32 0
  store i8 12, ptr %49, align 8
  br label %75

50:                                               ; preds = %2
  %51 = load ptr, ptr %4, align 8
  %52 = getelementptr inbounds nuw %struct.som_operation, ptr %51, i32 0, i32 0
  store i8 13, ptr %52, align 8
  br label %75

53:                                               ; preds = %2
  %54 = load ptr, ptr %4, align 8
  %55 = getelementptr inbounds nuw %struct.som_operation, ptr %54, i32 0, i32 0
  store i8 14, ptr %55, align 8
  br label %75

56:                                               ; preds = %2
  %57 = load ptr, ptr %4, align 8
  %58 = getelementptr inbounds nuw %struct.som_operation, ptr %57, i32 0, i32 0
  store i8 15, ptr %58, align 8
  br label %75

59:                                               ; preds = %2
  store i1 true, ptr %9, align 1
  %60 = call ptr @__cxa_allocate_exception(i64 48) #23
  call void @llvm.lifetime.start.p0(i64 32, ptr %5) #23
  call void @llvm.lifetime.start.p0(i64 1, ptr %6) #23
  call void @_ZNSaIcEC2Ev(ptr noundef nonnull align 1 dereferenceable(1) %6) #23
  invoke void @_ZNSt7__cxx1112basic_stringIcSt11char_traitsIcESaIcEEC2EPKcRKS3_(ptr noundef nonnull align 8 dereferenceable(32) %5, ptr noundef @.str.8, ptr noundef nonnull align 1 dereferenceable(1) %6)
          to label %61 unwind label %63

61:                                               ; preds = %59
  invoke void @_ZN3ue212CompileErrorC1ERKNSt7__cxx1112basic_stringIcSt11char_traitsIcESaIcEEE(ptr noundef nonnull align 8 dereferenceable(48) %60, ptr noundef nonnull align 8 dereferenceable(32) %5)
          to label %62 unwind label %67

62:                                               ; preds = %61
  store i1 false, ptr %9, align 1
  invoke void @__cxa_throw(ptr %60, ptr @_ZTIN3ue212CompileErrorE, ptr @_ZN3ue212CompileErrorD1Ev) #27
          to label %103 unwind label %67

63:                                               ; preds = %59
  %64 = landingpad { ptr, i32 }
          cleanup
  %65 = extractvalue { ptr, i32 } %64, 0
  store ptr %65, ptr %7, align 8
  %66 = extractvalue { ptr, i32 } %64, 1
  store i32 %66, ptr %8, align 4
  br label %71

67:                                               ; preds = %62, %61
  %68 = landingpad { ptr, i32 }
          cleanup
  %69 = extractvalue { ptr, i32 } %68, 0
  store ptr %69, ptr %7, align 8
  %70 = extractvalue { ptr, i32 } %68, 1
  store i32 %70, ptr %8, align 4
  call void @_ZNSt7__cxx1112basic_stringIcSt11char_traitsIcESaIcEED2Ev(ptr noundef nonnull align 8 dereferenceable(32) %5) #23
  br label %71

71:                                               ; preds = %67, %63
  call void @_ZNSt15__new_allocatorIcED2Ev(ptr noundef nonnull align 1 dereferenceable(1) %6) #23
  call void @llvm.lifetime.end.p0(i64 1, ptr %6) #23
  call void @llvm.lifetime.end.p0(i64 32, ptr %5) #23
  %72 = load i1, ptr %9, align 1
  br i1 %72, label %73, label %74

73:                                               ; preds = %71
  call void @__cxa_free_exception(ptr %60) #23
  br label %74

74:                                               ; preds = %73, %71
  br label %98

75:                                               ; preds = %56, %53, %50, %47, %44, %41, %38, %35, %32, %29, %26, %23, %20, %17, %14
  %76 = load ptr, ptr %3, align 8
  %77 = getelementptr inbounds nuw %"struct.ue2::Report", ptr %76, i32 0, i32 9
  %78 = load i32, ptr %77, align 8
  %79 = load ptr, ptr %4, align 8
  %80 = getelementptr inbounds nuw %struct.som_operation, ptr %79, i32 0, i32 1
  store i32 %78, ptr %80, align 4
  %81 = load ptr, ptr %3, align 8
  %82 = getelementptr inbounds nuw %"struct.ue2::Report", ptr %81, i32 0, i32 0
  %83 = load i32, ptr %82, align 8
  switch i32 %83, label %91 [
    i32 13, label %84
    i32 5, label %84
    i32 6, label %84
    i32 7, label %84
  ]

84:                                               ; preds = %75, %75, %75, %75
  %85 = load ptr, ptr %3, align 8
  %86 = getelementptr inbounds nuw %"struct.ue2::Report", ptr %85, i32 0, i32 10
  %87 = load i32, ptr %86, align 4
  %88 = zext i32 %87 to i64
  %89 = load ptr, ptr %4, align 8
  %90 = getelementptr inbounds nuw %struct.som_operation, ptr %89, i32 0, i32 2
  store i64 %88, ptr %90, align 8
  br label %97

91:                                               ; preds = %75
  %92 = load ptr, ptr %3, align 8
  %93 = getelementptr inbounds nuw %"struct.ue2::Report", ptr %92, i32 0, i32 11
  %94 = load i64, ptr %93, align 8
  %95 = load ptr, ptr %4, align 8
  %96 = getelementptr inbounds nuw %struct.som_operation, ptr %95, i32 0, i32 2
  store i64 %94, ptr %96, align 8
  br label %97

97:                                               ; preds = %91, %84
  ret void

98:                                               ; preds = %74
  %99 = load ptr, ptr %7, align 8
  %100 = load i32, ptr %8, align 4
  %101 = insertvalue { ptr, i32 } poison, ptr %99, 0
  %102 = insertvalue { ptr, i32 } %101, i32 %100, 1
  resume { ptr, i32 } %102

103:                                              ; preds = %62
  unreachable
}