; Function Attrs: mustprogress uwtable
define internal fastcc void @_ZN3ue2L17writeSomOperationERKNS_6ReportEP13som_operation(ptr noundef nonnull readonly align 8 captures(none) dereferenceable(72) %0, ptr noundef writeonly captures(none) initializes((0, 16)) %1) unnamed_addr #0 personality ptr @__gxx_personality_v0 {
  %3 = alloca %"class.std::__cxx11::basic_string", align 8
  %4 = alloca %"class.std::allocator.370", align 1
  tail call void @llvm.memset.p0.i64(ptr noundef nonnull align 8 dereferenceable(16) %1, i8 0, i64 16, i1 false)
  %5 = load i32, ptr %0, align 8
  %switch.tableidx = add i32 %5, -1
  %6 = icmp ult i32 %switch.tableidx, 15
  br i1 %6, label %switch.lookup, label %7

7:                                                ; preds = %2
  %8 = tail call ptr @__cxa_allocate_exception(i64 48) #29
  call void @llvm.lifetime.start.p0(i64 32, ptr nonnull %3) #29
  call void @llvm.lifetime.start.p0(i64 1, ptr nonnull %4) #29
  invoke void @_ZNSt7__cxx1112basic_stringIcSt11char_traitsIcESaIcEEC2EPKcRKS3_(ptr noundef nonnull align 8 dereferenceable(32) %3, ptr noundef nonnull @.str.8, ptr noundef nonnull align 1 dereferenceable(1) %4)
          to label %9 unwind label %_ZNSt7__cxx1112basic_stringIcSt11char_traitsIcESaIcEED2Ev.exit.thread

9:                                                ; preds = %7
  invoke void @_ZN3ue212CompileErrorC1ERKNSt7__cxx1112basic_stringIcSt11char_traitsIcESaIcEEE(ptr noundef nonnull align 8 dereferenceable(48) %8, ptr noundef nonnull align 8 dereferenceable(32) %3)
          to label %10 unwind label %12

10:                                               ; preds = %9
  invoke void @__cxa_throw(ptr nonnull %8, ptr nonnull @_ZTIN3ue212CompileErrorE, ptr nonnull @_ZN3ue212CompileErrorD1Ev) #26
          to label %35 unwind label %12

_ZNSt7__cxx1112basic_stringIcSt11char_traitsIcESaIcEED2Ev.exit.thread: ; preds = %7
  %11 = landingpad { ptr, i32 }
          cleanup
  call void @llvm.lifetime.end.p0(i64 1, ptr nonnull %4) #29
  call void @llvm.lifetime.end.p0(i64 32, ptr nonnull %3) #29
  br label %20

12:                                               ; preds = %10, %9
  %.0 = phi i1 [ false, %10 ], [ true, %9 ]
  %13 = landingpad { ptr, i32 }
          cleanup
  %14 = load ptr, ptr %3, align 8
  %15 = getelementptr inbounds nuw i8, ptr %3, i64 16
  %16 = icmp eq ptr %14, %15
  br i1 %16, label %_ZNKSt7__cxx1112basic_stringIcSt11char_traitsIcESaIcEE11_M_is_localEv.exit.thread.i.i, label %_ZNSt7__cxx1112basic_stringIcSt11char_traitsIcESaIcEED2Ev.exit

_ZNKSt7__cxx1112basic_stringIcSt11char_traitsIcESaIcEE11_M_is_localEv.exit.thread.i.i: ; preds = %12
  %17 = getelementptr inbounds nuw i8, ptr %3, i64 8
  %18 = load i64, ptr %17, align 8
  %19 = icmp ult i64 %18, 16
  call void @llvm.assume(i1 %19)
  call void @llvm.lifetime.end.p0(i64 1, ptr nonnull %4) #29
  call void @llvm.lifetime.end.p0(i64 32, ptr nonnull %3) #29
  br i1 %.0, label %20, label %34

_ZNSt7__cxx1112basic_stringIcSt11char_traitsIcESaIcEED2Ev.exit: ; preds = %12
  call void @_ZdlPv(ptr noundef %14) #28
  call void @llvm.lifetime.end.p0(i64 1, ptr nonnull %4) #29
  call void @llvm.lifetime.end.p0(i64 32, ptr nonnull %3) #29
  br i1 %.0, label %20, label %34

20:                                               ; preds = %_ZNKSt7__cxx1112basic_stringIcSt11char_traitsIcESaIcEE11_M_is_localEv.exit.thread.i.i, %_ZNSt7__cxx1112basic_stringIcSt11char_traitsIcESaIcEED2Ev.exit.thread, %_ZNSt7__cxx1112basic_stringIcSt11char_traitsIcESaIcEED2Ev.exit
  %.pn32 = phi { ptr, i32 } [ %11, %_ZNSt7__cxx1112basic_stringIcSt11char_traitsIcESaIcEED2Ev.exit.thread ], [ %13, %_ZNSt7__cxx1112basic_stringIcSt11char_traitsIcESaIcEED2Ev.exit ], [ %13, %_ZNKSt7__cxx1112basic_stringIcSt11char_traitsIcESaIcEE11_M_is_localEv.exit.thread.i.i ]
  call void @__cxa_free_exception(ptr %8) #29
  br label %34

switch.lookup:                                    ; preds = %2
  %switch.idx.cast = trunc nuw i32 %switch.tableidx to i8
  %switch.offset = add nuw nsw i8 %switch.idx.cast, 1
  store i8 %switch.offset, ptr %1, align 8
  %21 = getelementptr inbounds nuw i8, ptr %0, i64 48
  %22 = load i32, ptr %21, align 8
  %23 = getelementptr inbounds nuw i8, ptr %1, i64 4
  store i32 %22, ptr %23, align 4
  %24 = load i32, ptr %0, align 8
  switch i32 %24, label %29 [
    i32 13, label %25
    i32 5, label %25
    i32 6, label %25
    i32 7, label %25
  ]

25:                                               ; preds = %switch.lookup, %switch.lookup, %switch.lookup, %switch.lookup
  %26 = getelementptr inbounds nuw i8, ptr %0, i64 52
  %27 = load i32, ptr %26, align 4
  %28 = zext i32 %27 to i64
  br label %32

29:                                               ; preds = %switch.lookup
  %30 = getelementptr inbounds nuw i8, ptr %0, i64 56
  %31 = load i64, ptr %30, align 8
  br label %32

32:                                               ; preds = %29, %25
  %.sink33 = phi i64 [ %31, %29 ], [ %28, %25 ]
  %33 = getelementptr inbounds nuw i8, ptr %1, i64 8
  store i64 %.sink33, ptr %33, align 8
  ret void

34:                                               ; preds = %_ZNKSt7__cxx1112basic_stringIcSt11char_traitsIcESaIcEE11_M_is_localEv.exit.thread.i.i, %_ZNSt7__cxx1112basic_stringIcSt11char_traitsIcESaIcEED2Ev.exit, %20
  %.pn31 = phi { ptr, i32 } [ %13, %_ZNSt7__cxx1112basic_stringIcSt11char_traitsIcESaIcEED2Ev.exit ], [ %.pn32, %20 ], [ %13, %_ZNKSt7__cxx1112basic_stringIcSt11char_traitsIcESaIcEE11_M_is_localEv.exit.thread.i.i ]
  resume { ptr, i32 } %.pn31

35:                                               ; preds = %10
  unreachable
}